target datalayout = "e-m:e-p270:32:32-p271:32:32-p272:64:64-i64:64-i128:128-f80:128-n8:16:32:64-S128"
target triple = "x86_64-pc-linux-gnu"

; Function Attrs: nounwind uwtable
define internal void @exch_table_item(ptr noundef %0, i16 noundef signext %1, i16 noundef signext %2) #0 {
  %4 = alloca ptr, align 8
  %5 = alloca i16, align 2
  %6 = alloca i16, align 2
  %7 = alloca ptr, align 8
  %8 = alloca ptr, align 8
  %9 = alloca ptr, align 8
  %10 = alloca ptr, align 8
  store ptr %0, ptr %4, align 8, !tbaa !8
  store i16 %1, ptr %5, align 2, !tbaa !39
  store i16 %2, ptr %6, align 2, !tbaa !39
  %11 = load i16, ptr %5, align 2, !tbaa !39
  %12 = sext i16 %11 to i32
  %13 = load i16, ptr %6, align 2, !tbaa !39
  %14 = sext i16 %13 to i32
  %15 = icmp eq i32 %12, %14
  br i1 %15, label %16, label %17

16:                                               ; preds = %3
  br label %95

17:                                               ; preds = %3
  call void @llvm.lifetime.start.p0(i64 8, ptr %7) #5
  %18 = load ptr, ptr %4, align 8, !tbaa !8
  %19 = load i16, ptr %5, align 2, !tbaa !39
  %20 = sext i16 %19 to i32
  %21 = call ptr @lv_table_get_cell_value(ptr noundef %18, i32 noundef %20, i32 noundef 0)
  store ptr %21, ptr %7, align 8, !tbaa !36
  call void @llvm.lifetime.start.p0(i64 8, ptr %8) #5
  %22 = load ptr, ptr %7, align 8, !tbaa !36
  %23 = call i64 @lv_strlen(ptr noundef %22)
  %24 = add i64 %23, 1
  %25 = call ptr @lv_malloc(i64 noundef %24)
  store ptr %25, ptr %8, align 8, !tbaa !36
  br label %26

26:                                               ; preds = %17
  %27 = load ptr, ptr %8, align 8, !tbaa !36
  %28 = icmp ne ptr %27, null
  br i1 %28, label %35, label %29

29:                                               ; preds = %26
  br label %30

30:                                               ; preds = %29
  br label %31

31:                                               ; preds = %30
  br label %32

32:                                               ; preds = %31
  br label %33

33:                                               ; preds = %34, %32
  br label %34

34:                                               ; preds = %33
  br label %33

35:                                               ; preds = %26
  br label %36

36:                                               ; preds = %35
  br label %37

37:                                               ; preds = %36
  %38 = load ptr, ptr %8, align 8, !tbaa !36
  %39 = load ptr, ptr %7, align 8, !tbaa !36
  %40 = call ptr @lv_strcpy(ptr noundef %38, ptr noundef %39)
  call void @llvm.lifetime.start.p0(i64 8, ptr %9) #5
  %41 = call ptr @lv_malloc(i64 noundef 4)
  store ptr %41, ptr %9, align 8, !tbaa !41
  br label %42

42:                                               ; preds = %37
  %43 = load ptr, ptr %9, align 8, !tbaa !41
  %44 = icmp ne ptr %43, null
  br i1 %44, label %51, label %45

45:                                               ; preds = %42
  br label %46

46:                                               ; preds = %45
  br label %47

47:                                               ; preds = %46
  br label %48

48:                                               ; preds = %47
  br label %49

49:                                               ; preds = %50, %48
  br label %50

50:                                               ; preds = %49
  br label %49

51:                                               ; preds = %42
  br label %52

52:                                               ; preds = %51
  br label %53

53:                                               ; preds = %52
  %54 = load ptr, ptr %9, align 8, !tbaa !41
  %55 = load ptr, ptr %4, align 8, !tbaa !8
  %56 = load i16, ptr %5, align 2, !tbaa !39
  %57 = call ptr @lv_table_get_cell_user_data(ptr noundef %55, i16 noundef zeroext %56, i16 noundef zeroext 0)
  %58 = call ptr @lv_memcpy(ptr noundef %54, ptr noundef %57, i64 noundef 4)
  call void @llvm.lifetime.start.p0(i64 8, ptr %10) #5
  %59 = call ptr @lv_malloc(i64 noundef 4)
  store ptr %59, ptr %10, align 8, !tbaa !41
  br label %60

60:                                               ; preds = %53
  %61 = load ptr, ptr %10, align 8, !tbaa !41
  %62 = icmp ne ptr %61, null
  br i1 %62, label %69, label %63

63:                                               ; preds = %60
  br label %64

64:                                               ; preds = %63
  br label %65

65:                                               ; preds = %64
  br label %66

66:                                               ; preds = %65
  br label %67

67:                                               ; preds = %68, %66
  br label %68

68:                                               ; preds = %67
  br label %67

69:                                               ; preds = %60
  br label %70

70:                                               ; preds = %69
  br label %71

71:                                               ; preds = %70
  %72 = load ptr, ptr %10, align 8, !tbaa !41
  %73 = load ptr, ptr %4, align 8, !tbaa !8
  %74 = load i16, ptr %6, align 2, !tbaa !39
  %75 = call ptr @lv_table_get_cell_user_data(ptr noundef %73, i16 noundef zeroext %74, i16 noundef zeroext 0)
  %76 = call ptr @lv_memcpy(ptr noundef %72, ptr noundef %75, i64 noundef 4)
  %77 = load ptr, ptr %4, align 8, !tbaa !8
  %78 = load i16, ptr %5, align 2, !tbaa !39
  %79 = sext i16 %78 to i32
  %80 = load ptr, ptr %4, align 8, !tbaa !8
  %81 = load i16, ptr %6, align 2, !tbaa !39
  %82 = sext i16 %81 to i32
  %83 = call ptr @lv_table_get_cell_value(ptr noundef %80, i32 noundef %82, i32 noundef 0)
  call void @lv_table_set_cell_value(ptr noundef %77, i32 noundef %79, i32 noundef 0, ptr noundef %83)
  %84 = load ptr, ptr %4, align 8, !tbaa !8
  %85 = load i16, ptr %5, align 2, !tbaa !39
  %86 = load ptr, ptr %10, align 8, !tbaa !41
  call void @lv_table_set_cell_user_data(ptr noundef %84, i16 noundef zeroext %85, i16 noundef zeroext 0, ptr noundef %86)
  %87 = load ptr, ptr %4, align 8, !tbaa !8
  %88 = load i16, ptr %6, align 2, !tbaa !39
  %89 = sext i16 %88 to i32
  %90 = load ptr, ptr %8, align 8, !tbaa !36
  call void @lv_table_set_cell_value(ptr noundef %87, i32 noundef %89, i32 noundef 0, ptr noundef %90)
  %91 = load ptr, ptr %4, align 8, !tbaa !8
  %92 = load i16, ptr %6, align 2, !tbaa !39
  %93 = load ptr, ptr %9, align 8, !tbaa !41
  call void @lv_table_set_cell_user_data(ptr noundef %91, i16 noundef zeroext %92, i16 noundef zeroext 0, ptr noundef %93)
  %94 = load ptr, ptr %8, align 8, !tbaa !36
  call void @lv_free(ptr noundef %94)
  call void @llvm.lifetime.end.p0(i64 8, ptr %10) #5
  call void @llvm.lifetime.end.p0(i64 8, ptr %9) #5
  call void @llvm.lifetime.end.p0(i64 8, ptr %8) #5
  call void @llvm.lifetime.end.p0(i64 8, ptr %7) #5
  br label %95

95:                                               ; preds = %71, %16
  ret void
}