; Function Attrs: nounwind uwtable
define internal fastcc void @exch_table_item(ptr noundef %0, i16 noundef signext %1, i16 noundef signext %2) unnamed_addr #0 {
  %4 = sext i16 %1 to i32
  %5 = sext i16 %2 to i32
  %6 = icmp eq i16 %1, %2
  br i1 %6, label %23, label %7

7:                                                ; preds = %3
  %8 = tail call ptr @lv_table_get_cell_value(ptr noundef %0, i32 noundef %4, i32 noundef 0) #6
  %9 = tail call i64 @lv_strlen(ptr noundef %8) #6
  %10 = add i64 %9, 1
  %11 = tail call ptr @lv_malloc(i64 noundef %10) #6
  %.not = icmp eq ptr %11, null
  br i1 %.not, label %.preheader, label %12

.preheader:                                       ; preds = %7, %.preheader
  br label %.preheader

12:                                               ; preds = %7
  %13 = tail call ptr @lv_strcpy(ptr noundef nonnull %11, ptr noundef %8) #6
  %14 = tail call ptr @lv_malloc(i64 noundef 4) #6
  %.not33 = icmp eq ptr %14, null
  br i1 %.not33, label %.preheader35, label %15

.preheader35:                                     ; preds = %12, %.preheader35
  br label %.preheader35

15:                                               ; preds = %12
  %16 = tail call ptr @lv_table_get_cell_user_data(ptr noundef %0, i16 noundef zeroext %1, i16 noundef zeroext 0) #6
  %17 = tail call ptr @lv_memcpy(ptr noundef nonnull %14, ptr noundef %16, i64 noundef 4) #6
  %18 = tail call ptr @lv_malloc(i64 noundef 4) #6
  %.not34 = icmp eq ptr %18, null
  br i1 %.not34, label %.preheader36, label %19

.preheader36:                                     ; preds = %15, %.preheader36
  br label %.preheader36

19:                                               ; preds = %15
  %20 = tail call ptr @lv_table_get_cell_user_data(ptr noundef %0, i16 noundef zeroext %2, i16 noundef zeroext 0) #6
  %21 = tail call ptr @lv_memcpy(ptr noundef nonnull %18, ptr noundef %20, i64 noundef 4) #6
  %22 = tail call ptr @lv_table_get_cell_value(ptr noundef %0, i32 noundef %5, i32 noundef 0) #6
  tail call void @lv_table_set_cell_value(ptr noundef %0, i32 noundef %4, i32 noundef 0, ptr noundef %22) #6
  tail call void @lv_table_set_cell_user_data(ptr noundef %0, i16 noundef zeroext %1, i16 noundef zeroext 0, ptr noundef nonnull %18) #6
  tail call void @lv_table_set_cell_value(ptr noundef %0, i32 noundef %5, i32 noundef 0, ptr noundef nonnull %11) #6
  tail call void @lv_table_set_cell_user_data(ptr noundef %0, i16 noundef zeroext %2, i16 noundef zeroext 0, ptr noundef nonnull %14) #6
  tail call void @lv_free(ptr noundef nonnull %11) #6
  br label %23

23:                                               ; preds = %3, %19
  ret void
}